target datalayout = "e-m:e-p270:32:32-p271:32:32-p272:64:64-i64:64-i128:128-f80:128-n8:16:32:64-S128"
target triple = "x86_64-pc-linux-gnu"

%struct.prov_cipher_ctx_st = type { [16 x i8], [16 x i8], [16 x i8], ptr, %union.anon, i32, i64, i64, i64, i64, i32, i8, i32, ptr, i32, i64, i32, i64, i32, ptr, ptr, ptr }
%union.anon = type { ptr }
%struct.prov_tdes_ctx_st = type { %struct.prov_cipher_ctx_st, %union.anon.0, %union.anon.2 }
%union.anon.0 = type { double, [376 x i8] }
%union.anon.2 = type { ptr }
%struct.DES_ks = type { [16 x %union.anon.1] }
%union.anon.1 = type { [2 x i32] }

; Function Attrs: nounwind uwtable
define internal i32 @ossl_cipher_hw_tdes_cfb(ptr noundef %0, ptr noundef %1, ptr noundef %2, i64 noundef %3) #0 {
  %5 = alloca ptr, align 8
  %6 = alloca ptr, align 8
  %7 = alloca ptr, align 8
  %8 = alloca i64, align 8
  %9 = alloca ptr, align 8
  %10 = alloca i32, align 4
  store ptr %0, ptr %5, align 8, !tbaa !3
  store ptr %1, ptr %6, align 8, !tbaa !8
  store ptr %2, ptr %7, align 8, !tbaa !8
  store i64 %3, ptr %8, align 8, !tbaa !10
  call void @llvm.lifetime.start.p0(i64 8, ptr %9) #5
  %11 = load ptr, ptr %5, align 8, !tbaa !3
  store ptr %11, ptr %9, align 8, !tbaa !12
  call void @llvm.lifetime.start.p0(i64 4, ptr %10) #5
  %12 = load ptr, ptr %5, align 8, !tbaa !3
  %13 = getelementptr inbounds nuw %struct.prov_cipher_ctx_st, ptr %12, i32 0, i32 18
  %14 = load i32, ptr %13, align 8, !tbaa !14
  store i32 %14, ptr %10, align 4, !tbaa !19
  br label %15

15:                                               ; preds = %18, %4
  %16 = load i64, ptr %8, align 8, !tbaa !10
  %17 = icmp uge i64 %16, 1073741824
  br i1 %17, label %18, label %45

18:                                               ; preds = %15
  %19 = load ptr, ptr %7, align 8, !tbaa !8
  %20 = load ptr, ptr %6, align 8, !tbaa !8
  %21 = load ptr, ptr %9, align 8, !tbaa !12
  %22 = getelementptr inbounds nuw %struct.prov_tdes_ctx_st, ptr %21, i32 0, i32 1
  %23 = getelementptr inbounds [3 x %struct.DES_ks], ptr %22, i64 0, i64 0
  %24 = load ptr, ptr %9, align 8, !tbaa !12
  %25 = getelementptr inbounds nuw %struct.prov_tdes_ctx_st, ptr %24, i32 0, i32 1
  %26 = getelementptr inbounds [3 x %struct.DES_ks], ptr %25, i64 0, i64 1
  %27 = load ptr, ptr %9, align 8, !tbaa !12
  %28 = getelementptr inbounds nuw %struct.prov_tdes_ctx_st, ptr %27, i32 0, i32 1
  %29 = getelementptr inbounds [3 x %struct.DES_ks], ptr %28, i64 0, i64 2
  %30 = load ptr, ptr %5, align 8, !tbaa !3
  %31 = getelementptr inbounds nuw %struct.prov_cipher_ctx_st, ptr %30, i32 0, i32 2
  %32 = getelementptr inbounds [16 x i8], ptr %31, i64 0, i64 0
  %33 = load ptr, ptr %5, align 8, !tbaa !3
  %34 = getelementptr inbounds nuw %struct.prov_cipher_ctx_st, ptr %33, i32 0, i32 11
  %35 = load i8, ptr %34, align 4
  %36 = lshr i8 %35, 1
  %37 = and i8 %36, 1
  %38 = zext i8 %37 to i32
  call void @DES_ede3_cfb64_encrypt(ptr noundef %19, ptr noundef %20, i64 noundef 1073741824, ptr noundef %23, ptr noundef %26, ptr noundef %29, ptr noundef %32, ptr noundef %10, i32 noundef %38)
  %39 = load i64, ptr %8, align 8, !tbaa !10
  %40 = sub i64 %39, 1073741824
  store i64 %40, ptr %8, align 8, !tbaa !10
  %41 = load ptr, ptr %7, align 8, !tbaa !8
  %42 = getelementptr inbounds nuw i8, ptr %41, i64 1073741824
  store ptr %42, ptr %7, align 8, !tbaa !8
  %43 = load ptr, ptr %6, align 8, !tbaa !8
  %44 = getelementptr inbounds nuw i8, ptr %43, i64 1073741824
  store ptr %44, ptr %6, align 8, !tbaa !8
  br label %15, !llvm.loop !22

45:                                               ; preds = %15
  %46 = load i64, ptr %8, align 8, !tbaa !10
  %47 = icmp ugt i64 %46, 0
  br i1 %47, label %48, label %70

48:                                               ; preds = %45
  %49 = load ptr, ptr %7, align 8, !tbaa !8
  %50 = load ptr, ptr %6, align 8, !tbaa !8
  %51 = load i64, ptr %8, align 8, !tbaa !10
  %52 = load ptr, ptr %9, align 8, !tbaa !12
  %53 = getelementptr inbounds nuw %struct.prov_tdes_ctx_st, ptr %52, i32 0, i32 1
  %54 = getelementptr inbounds [3 x %struct.DES_ks], ptr %53, i64 0, i64 0
  %55 = load ptr, ptr %9, align 8, !tbaa !12
  %56 = getelementptr inbounds nuw %struct.prov_tdes_ctx_st, ptr %55, i32 0, i32 1
  %57 = getelementptr inbounds [3 x %struct.DES_ks], ptr %56, i64 0, i64 1
  %58 = load ptr, ptr %9, align 8, !tbaa !12
  %59 = getelementptr inbounds nuw %struct.prov_tdes_ctx_st, ptr %58, i32 0, i32 1
  %60 = getelementptr inbounds [3 x %struct.DES_ks], ptr %59, i64 0, i64 2
  %61 = load ptr, ptr %5, align 8, !tbaa !3
  %62 = getelementptr inbounds nuw %struct.prov_cipher_ctx_st, ptr %61, i32 0, i32 2
  %63 = getelementptr inbounds [16 x i8], ptr %62, i64 0, i64 0
  %64 = load ptr, ptr %5, align 8, !tbaa !3
  %65 = getelementptr inbounds nuw %struct.prov_cipher_ctx_st, ptr %64, i32 0, i32 11
  %66 = load i8, ptr %65, align 4
  %67 = lshr i8 %66, 1
  %68 = and i8 %67, 1
  %69 = zext i8 %68 to i32
  call void @DES_ede3_cfb64_encrypt(ptr noundef %49, ptr noundef %50, i64 noundef %51, ptr noundef %54, ptr noundef %57, ptr noundef %60, ptr noundef %63, ptr noundef %10, i32 noundef %69)
  br label %70

70:                                               ; preds = %48, %45
  %71 = load i32, ptr %10, align 4, !tbaa !19
  %72 = load ptr, ptr %5, align 8, !tbaa !3
  %73 = getelementptr inbounds nuw %struct.prov_cipher_ctx_st, ptr %72, i32 0, i32 18
  store i32 %71, ptr %73, align 8, !tbaa !14
  call void @llvm.lifetime.end.p0(i64 4, ptr %10) #5
  call void @llvm.lifetime.end.p0(i64 8, ptr %9) #5
  ret i32 1
}