; Function Attrs: nounwind uwtable
define internal noundef i32 @ossl_cipher_hw_tdes_cfb(ptr noundef %0, ptr noundef %1, ptr noundef %2, i64 noundef %3) #2 {
  %5 = alloca i32, align 4
  call void @llvm.lifetime.start.p0(i64 4, ptr nonnull %5) #5
  %6 = getelementptr inbounds nuw i8, ptr %0, i64 160
  %7 = load i32, ptr %6, align 8, !tbaa !3
  store i32 %7, ptr %5, align 4, !tbaa !13
  %8 = icmp ugt i64 %3, 1073741823
  br i1 %8, label %.lr.ph, label %._crit_edge

.lr.ph:                                           ; preds = %4
  %9 = getelementptr inbounds nuw i8, ptr %0, i64 192
  %10 = getelementptr inbounds nuw i8, ptr %0, i64 320
  %11 = getelementptr inbounds nuw i8, ptr %0, i64 448
  %12 = getelementptr inbounds nuw i8, ptr %0, i64 32
  %13 = getelementptr inbounds nuw i8, ptr %0, i64 108
  br label %14

14:                                               ; preds = %.lr.ph, %14
  %.026 = phi ptr [ %1, %.lr.ph ], [ %21, %14 ]
  %.02225 = phi i64 [ %3, %.lr.ph ], [ %19, %14 ]
  %.02324 = phi ptr [ %2, %.lr.ph ], [ %20, %14 ]
  %15 = load i8, ptr %13, align 4
  %16 = lshr i8 %15, 1
  %17 = and i8 %16, 1
  %18 = zext nneg i8 %17 to i32
  call void @DES_ede3_cfb64_encrypt(ptr noundef %.02324, ptr noundef %.026, i64 noundef 1073741824, ptr noundef nonnull %9, ptr noundef nonnull %10, ptr noundef nonnull %11, ptr noundef nonnull %12, ptr noundef nonnull %5, i32 noundef %18) #5
  %19 = add i64 %.02225, -1073741824
  %20 = getelementptr inbounds nuw i8, ptr %.02324, i64 1073741824
  %21 = getelementptr inbounds nuw i8, ptr %.026, i64 1073741824
  %22 = icmp ugt i64 %19, 1073741823
  br i1 %22, label %14, label %._crit_edge, !llvm.loop !16

._crit_edge:                                      ; preds = %14, %4
  %.023.lcssa = phi ptr [ %2, %4 ], [ %20, %14 ]
  %.022.lcssa = phi i64 [ %3, %4 ], [ %19, %14 ]
  %.0.lcssa = phi ptr [ %1, %4 ], [ %21, %14 ]
  %.not = icmp eq i64 %.022.lcssa, 0
  br i1 %.not, label %33, label %23

23:                                               ; preds = %._crit_edge
  %24 = getelementptr inbounds nuw i8, ptr %0, i64 192
  %25 = getelementptr inbounds nuw i8, ptr %0, i64 320
  %26 = getelementptr inbounds nuw i8, ptr %0, i64 448
  %27 = getelementptr inbounds nuw i8, ptr %0, i64 32
  %28 = getelementptr inbounds nuw i8, ptr %0, i64 108
  %29 = load i8, ptr %28, align 4
  %30 = lshr i8 %29, 1
  %31 = and i8 %30, 1
  %32 = zext nneg i8 %31 to i32
  call void @DES_ede3_cfb64_encrypt(ptr noundef %.023.lcssa, ptr noundef %.0.lcssa, i64 noundef %.022.lcssa, ptr noundef nonnull %24, ptr noundef nonnull %25, ptr noundef nonnull %26, ptr noundef nonnull %27, ptr noundef nonnull %5, i32 noundef %32) #5
  br label %33

33:                                               ; preds = %23, %._crit_edge
  %34 = load i32, ptr %5, align 4, !tbaa !13
  store i32 %34, ptr %6, align 8, !tbaa !3
  call void @llvm.lifetime.end.p0(i64 4, ptr nonnull %5) #5
  ret i32 1
}